target datalayout = "e-m:e-p270:32:32-p271:32:32-p272:64:64-i64:64-i128:128-f80:128-n8:16:32:64-S128"
target triple = "x86_64-pc-linux-gnu"

%struct.darktable_t = type { %struct.dt_codepath_t, i32, i32, ptr, ptr, ptr, ptr, ptr, ptr, ptr, ptr, ptr, ptr, ptr, ptr, ptr, ptr, ptr, ptr, ptr, ptr, ptr, ptr, ptr, ptr, ptr, ptr, ptr, ptr, ptr, [64 x %struct.dt_pthread_mutex_t], %struct.dt_pthread_mutex_t, %struct.dt_pthread_mutex_t, %struct.dt_pthread_mutex_t, %struct.dt_pthread_mutex_t, %struct.dt_pthread_mutex_t, ptr, ptr, ptr, ptr, ptr, ptr, ptr, ptr, ptr, ptr, ptr, ptr, ptr, %struct.dt_lua_state_t, ptr, double, ptr, i32, [47 x i32], i32, i32, ptr, ptr, %struct.dt_sys_resources_t, %struct.dt_backthumb_t, %struct.dt_gimp_t }
%struct.dt_codepath_t = type { i8, [3 x i8] }
%struct.dt_pthread_mutex_t = type { %union.pthread_mutex_t }
%union.pthread_mutex_t = type { %struct.__pthread_mutex_s }
%struct.__pthread_mutex_s = type { i32, i32, i32, i32, i32, i16, i16, %struct.__pthread_internal_list }
%struct.__pthread_internal_list = type { ptr, ptr }
%struct.dt_lua_state_t = type { i32 }
%struct.dt_sys_resources_t = type { i64, i64, ptr, ptr, i32 }
%struct.dt_backthumb_t = type { double, double, i32, i32, i32, i32 }
%struct.dt_gimp_t = type { i32, ptr, ptr, i32, i32 }
%struct.dt_lib_module_t = type { %struct.dt_action_t, ptr, ptr, ptr, ptr, ptr, ptr, ptr, ptr, ptr, ptr, ptr, ptr, ptr, ptr, ptr, ptr, ptr, ptr, ptr, ptr, ptr, ptr, ptr, ptr, ptr, ptr, ptr, ptr, ptr, ptr, [128 x i8], ptr, ptr, i32, ptr, ptr, ptr, i32 }
%struct.dt_action_t = type { i32, ptr, ptr, ptr, ptr, ptr }
%struct.dt_view_t = type { %struct.dt_action_t, ptr, ptr, ptr, ptr, ptr, ptr, ptr, ptr, ptr, ptr, ptr, ptr, ptr, ptr, ptr, ptr, ptr, ptr, ptr, ptr, ptr, [64 x i8], ptr, ptr, i32, i32, float, float, float, float, float, float, float, float }

@darktable = external global %struct.darktable_t, align 8
@.str.115 = private unnamed_addr constant [11 x i8] c"lighttable\00", align 1
@.str.116 = private unnamed_addr constant [9 x i8] c"preview/\00", align 1
@.str.117 = private unnamed_addr constant [4 x i8] c"%d/\00", align 1
@.str.118 = private unnamed_addr constant [9 x i8] c"darkroom\00", align 1
@.str.119 = private unnamed_addr constant [18 x i8] c"plugins/%s/%s%s%s\00", align 1

; Function Attrs: nounwind uwtable
define internal ptr @_get_lib_view_path(ptr noundef %0, ptr noundef %1, ptr noundef %2) #0 {
  %4 = alloca ptr, align 8
  %5 = alloca ptr, align 8
  %6 = alloca ptr, align 8
  %7 = alloca ptr, align 8
  %8 = alloca [32 x i8], align 16
  store ptr %0, ptr %5, align 8, !tbaa !6
  store ptr %1, ptr %6, align 8, !tbaa !11
  store ptr %2, ptr %7, align 8, !tbaa !63
  %9 = load ptr, ptr %6, align 8, !tbaa !11
  %10 = icmp ne ptr %9, null
  br i1 %10, label %17, label %11

11:                                               ; preds = %3
  %12 = load ptr, ptr getelementptr inbounds nuw (%struct.darktable_t, ptr @darktable, i32 0, i32 11), align 8, !tbaa !64
  %13 = icmp ne ptr %12, null
  br i1 %13, label %14, label %17

14:                                               ; preds = %11
  %15 = load ptr, ptr getelementptr inbounds nuw (%struct.darktable_t, ptr @darktable, i32 0, i32 11), align 8, !tbaa !64
  %16 = call ptr @dt_view_manager_get_current_view(ptr noundef %15)
  store ptr %16, ptr %6, align 8, !tbaa !11
  br label %17

17:                                               ; preds = %14, %11, %3
  %18 = load ptr, ptr %6, align 8, !tbaa !11
  %19 = icmp ne ptr %18, null
  br i1 %19, label %21, label %20

20:                                               ; preds = %17
  store ptr null, ptr %4, align 8
  br label %69

21:                                               ; preds = %17
  call void @llvm.lifetime.start.p0(i64 32, ptr %8) #12
  call void @llvm.memset.p0.i64(ptr align 16 %8, i8 0, i64 32, i1 false)
  %22 = load ptr, ptr %6, align 8, !tbaa !11
  %23 = getelementptr inbounds nuw %struct.dt_view_t, ptr %22, i32 0, i32 22
  %24 = getelementptr inbounds [64 x i8], ptr %23, i64 0, i64 0
  %25 = call i32 @g_strcmp0(ptr noundef %24, ptr noundef @.str.115)
  %26 = icmp eq i32 %25, 0
  br i1 %26, label %27, label %47

27:                                               ; preds = %21
  %28 = load ptr, ptr %5, align 8, !tbaa !6
  %29 = getelementptr inbounds nuw %struct.dt_lib_module_t, ptr %28, i32 0, i32 5
  %30 = load ptr, ptr %29, align 8, !tbaa !65
  %31 = load ptr, ptr %5, align 8, !tbaa !6
  %32 = call i32 %30(ptr noundef %31)
  %33 = icmp ne i32 %32, 0
  br i1 %33, label %47, label %34

34:                                               ; preds = %27
  %35 = load ptr, ptr getelementptr inbounds nuw (%struct.darktable_t, ptr @darktable, i32 0, i32 11), align 8, !tbaa !64
  %36 = call i32 @dt_view_lighttable_preview_state(ptr noundef %35)
  %37 = icmp ne i32 %36, 0
  br i1 %37, label %38, label %41

38:                                               ; preds = %34
  %39 = getelementptr inbounds [32 x i8], ptr %8, i64 0, i64 0
  %40 = call i32 (ptr, i64, ptr, ...) @g_snprintf(ptr noundef %39, i64 noundef 32, ptr noundef @.str.116)
  br label %46

41:                                               ; preds = %34
  %42 = getelementptr inbounds [32 x i8], ptr %8, i64 0, i64 0
  %43 = load ptr, ptr getelementptr inbounds nuw (%struct.darktable_t, ptr @darktable, i32 0, i32 11), align 8, !tbaa !64
  %44 = call i32 @dt_view_lighttable_get_layout(ptr noundef %43)
  %45 = call i32 (ptr, i64, ptr, ...) @g_snprintf(ptr noundef %42, i64 noundef 32, ptr noundef @.str.117, i32 noundef %44)
  br label %46

46:                                               ; preds = %41, %38
  br label %59

47:                                               ; preds = %27, %21
  %48 = load ptr, ptr %6, align 8, !tbaa !11
  %49 = getelementptr inbounds nuw %struct.dt_view_t, ptr %48, i32 0, i32 22
  %50 = getelementptr inbounds [64 x i8], ptr %49, i64 0, i64 0
  %51 = call i32 @g_strcmp0(ptr noundef %50, ptr noundef @.str.118)
  %52 = icmp eq i32 %51, 0
  br i1 %52, label %53, label %58

53:                                               ; preds = %47
  %54 = getelementptr inbounds [32 x i8], ptr %8, i64 0, i64 0
  %55 = load ptr, ptr getelementptr inbounds nuw (%struct.darktable_t, ptr @darktable, i32 0, i32 11), align 8, !tbaa !64
  %56 = call i32 @dt_view_darkroom_get_layout(ptr noundef %55)
  %57 = call i32 (ptr, i64, ptr, ...) @g_snprintf(ptr noundef %54, i64 noundef 32, ptr noundef @.str.117, i32 noundef %56)
  br label %58

58:                                               ; preds = %53, %47
  br label %59

59:                                               ; preds = %58, %46
  %60 = load ptr, ptr %6, align 8, !tbaa !11
  %61 = getelementptr inbounds nuw %struct.dt_view_t, ptr %60, i32 0, i32 22
  %62 = getelementptr inbounds [64 x i8], ptr %61, i64 0, i64 0
  %63 = getelementptr inbounds [32 x i8], ptr %8, i64 0, i64 0
  %64 = load ptr, ptr %5, align 8, !tbaa !6
  %65 = getelementptr inbounds nuw %struct.dt_lib_module_t, ptr %64, i32 0, i32 31
  %66 = getelementptr inbounds [128 x i8], ptr %65, i64 0, i64 0
  %67 = load ptr, ptr %7, align 8, !tbaa !63
  %68 = call noalias ptr (ptr, ...) @g_strdup_printf(ptr noundef @.str.119, ptr noundef %62, ptr noundef %63, ptr noundef %66, ptr noundef %67)
  store ptr %68, ptr %4, align 8
  call void @llvm.lifetime.end.p0(i64 32, ptr %8) #12
  br label %69

69:                                               ; preds = %59, %20
  %70 = load ptr, ptr %4, align 8
  ret ptr %70
}