; Function Attrs: nounwind uwtable
define internal fastcc ptr @_get_lib_view_path(ptr noundef %0, ptr noundef %1, ptr noundef %2) unnamed_addr #0 {
  %4 = alloca [32 x i8], align 16
  %5 = icmp eq ptr %1, null
  %6 = load ptr, ptr getelementptr inbounds nuw (i8, ptr @darktable, i64 80), align 8
  %7 = icmp ne ptr %6, null
  %or.cond = select i1 %5, i1 %7, i1 false
  br i1 %or.cond, label %8, label %10

8:                                                ; preds = %3
  %9 = tail call ptr @dt_view_manager_get_current_view(ptr noundef nonnull %6) #19
  br label %10

10:                                               ; preds = %8, %3
  %.011 = phi ptr [ %9, %8 ], [ %1, %3 ]
  %.not = icmp eq ptr %.011, null
  br i1 %.not, label %38, label %11

11:                                               ; preds = %10
  call void @llvm.lifetime.start.p0(i64 32, ptr nonnull %4) #19
  call void @llvm.memset.p0.i64(ptr noundef nonnull align 16 dereferenceable(32) %4, i8 0, i64 32, i1 false)
  %12 = getelementptr inbounds nuw i8, ptr %.011, i64 216
  %13 = tail call i32 @g_strcmp0(ptr noundef nonnull %12, ptr noundef nonnull @.str.115) #19
  %14 = icmp eq i32 %13, 0
  br i1 %14, label %15, label %28

15:                                               ; preds = %11
  %16 = getelementptr inbounds nuw i8, ptr %0, i64 80
  %17 = load ptr, ptr %16, align 8, !tbaa !21
  %18 = tail call i32 %17(ptr noundef %0) #19
  %.not13 = icmp eq i32 %18, 0
  br i1 %.not13, label %19, label %28

19:                                               ; preds = %15
  %20 = load ptr, ptr getelementptr inbounds nuw (i8, ptr @darktable, i64 80), align 8, !tbaa !22
  %21 = tail call i32 @dt_view_lighttable_preview_state(ptr noundef %20) #19
  %.not14 = icmp eq i32 %21, 0
  br i1 %.not14, label %24, label %22

22:                                               ; preds = %19
  %23 = call i32 (ptr, i64, ptr, ...) @g_snprintf(ptr noundef nonnull %4, i64 noundef 32, ptr noundef nonnull @.str.116) #19
  br label %35

24:                                               ; preds = %19
  %25 = load ptr, ptr getelementptr inbounds nuw (i8, ptr @darktable, i64 80), align 8, !tbaa !22
  %26 = tail call i32 @dt_view_lighttable_get_layout(ptr noundef %25) #19
  %27 = call i32 (ptr, i64, ptr, ...) @g_snprintf(ptr noundef nonnull %4, i64 noundef 32, ptr noundef nonnull @.str.117, i32 noundef %26) #19
  br label %35

28:                                               ; preds = %15, %11
  %29 = tail call i32 @g_strcmp0(ptr noundef nonnull %12, ptr noundef nonnull @.str.118) #19
  %30 = icmp eq i32 %29, 0
  br i1 %30, label %31, label %35

31:                                               ; preds = %28
  %32 = load ptr, ptr getelementptr inbounds nuw (i8, ptr @darktable, i64 80), align 8, !tbaa !22
  %33 = tail call i32 @dt_view_darkroom_get_layout(ptr noundef %32) #19
  %34 = call i32 (ptr, i64, ptr, ...) @g_snprintf(ptr noundef nonnull %4, i64 noundef 32, ptr noundef nonnull @.str.117, i32 noundef %33) #19
  br label %35

35:                                               ; preds = %28, %31, %22, %24
  %36 = getelementptr inbounds nuw i8, ptr %0, i64 288
  %37 = call noalias ptr (ptr, ...) @g_strdup_printf(ptr noundef nonnull @.str.119, ptr noundef nonnull %12, ptr noundef nonnull %4, ptr noundef nonnull %36, ptr noundef %2) #19
  call void @llvm.lifetime.end.p0(i64 32, ptr nonnull %4) #19
  br label %38

38:                                               ; preds = %10, %35
  %.0 = phi ptr [ %37, %35 ], [ null, %10 ]
  ret ptr %.0
}